target datalayout = "e-m:e-p270:32:32-p271:32:32-p272:64:64-i64:64-i128:128-f80:128-n8:16:32:64-S128"
target triple = "x86_64-pc-linux-gnu"

%struct.SDL_EventWatchList = type { ptr, %struct.SDL_EventWatcher, ptr, i32, i8, i8 }
%struct.SDL_EventWatcher = type { ptr, ptr, i8 }

; Function Attrs: nounwind uwtable
define hidden void @SDL_QuitEventWatchList(ptr noundef %0) #0 {
  %2 = alloca ptr, align 8
  store ptr %0, ptr %2, align 8
  %3 = load ptr, ptr %2, align 8
  %4 = getelementptr inbounds nuw %struct.SDL_EventWatchList, ptr %3, i32 0, i32 0
  %5 = load ptr, ptr %4, align 8
  %6 = icmp ne ptr %5, null
  br i1 %6, label %7, label %13

7:                                                ; preds = %1
  %8 = load ptr, ptr %2, align 8
  %9 = getelementptr inbounds nuw %struct.SDL_EventWatchList, ptr %8, i32 0, i32 0
  %10 = load ptr, ptr %9, align 8
  call void @SDL_DestroyMutex_REAL(ptr noundef %10)
  %11 = load ptr, ptr %2, align 8
  %12 = getelementptr inbounds nuw %struct.SDL_EventWatchList, ptr %11, i32 0, i32 0
  store ptr null, ptr %12, align 8
  br label %13

13:                                               ; preds = %7, %1
  %14 = load ptr, ptr %2, align 8
  %15 = getelementptr inbounds nuw %struct.SDL_EventWatchList, ptr %14, i32 0, i32 2
  %16 = load ptr, ptr %15, align 8
  %17 = icmp ne ptr %16, null
  br i1 %17, label %18, label %26

18:                                               ; preds = %13
  %19 = load ptr, ptr %2, align 8
  %20 = getelementptr inbounds nuw %struct.SDL_EventWatchList, ptr %19, i32 0, i32 2
  %21 = load ptr, ptr %20, align 8
  call void @SDL_free_REAL(ptr noundef %21)
  %22 = load ptr, ptr %2, align 8
  %23 = getelementptr inbounds nuw %struct.SDL_EventWatchList, ptr %22, i32 0, i32 2
  store ptr null, ptr %23, align 8
  %24 = load ptr, ptr %2, align 8
  %25 = getelementptr inbounds nuw %struct.SDL_EventWatchList, ptr %24, i32 0, i32 3
  store i32 0, ptr %25, align 8
  br label %26

26:                                               ; preds = %18, %13
  %27 = load ptr, ptr %2, align 8
  %28 = getelementptr inbounds nuw %struct.SDL_EventWatchList, ptr %27, i32 0, i32 1
  call void @llvm.memset.p0.i64(ptr align 8 %28, i8 0, i64 24, i1 false)
  ret void
}