; Function Attrs: nounwind uwtable
define hidden void @SDL_QuitEventWatchList(ptr noundef captures(none) initializes((8, 32)) %0) local_unnamed_addr #0 {
  %2 = load ptr, ptr %0, align 8
  %.not = icmp eq ptr %2, null
  br i1 %.not, label %4, label %3

3:                                                ; preds = %1
  tail call void @SDL_DestroyMutex_REAL(ptr noundef nonnull %2) #5
  store ptr null, ptr %0, align 8
  br label %4

4:                                                ; preds = %3, %1
  %5 = getelementptr inbounds nuw i8, ptr %0, i64 32
  %6 = load ptr, ptr %5, align 8
  %.not9 = icmp eq ptr %6, null
  br i1 %.not9, label %9, label %7

7:                                                ; preds = %4
  tail call void @SDL_free_REAL(ptr noundef nonnull %6) #5
  store ptr null, ptr %5, align 8
  %8 = getelementptr inbounds nuw i8, ptr %0, i64 40
  store i32 0, ptr %8, align 8
  br label %9

9:                                                ; preds = %7, %4
  %10 = getelementptr inbounds nuw i8, ptr %0, i64 8
  tail call void @llvm.memset.p0.i64(ptr noundef nonnull align 8 dereferenceable(24) %10, i8 0, i64 24, i1 false)
  ret void
}